target datalayout = "e-m:e-p270:32:32-p271:32:32-p272:64:64-i64:64-i128:128-f80:128-n8:16:32:64-S128"
target triple = "x86_64-pc-linux-gnu"

%struct.ssl_st = type { i32, i16, i16, ptr, ptr, ptr, ptr, ptr, i32, i32, ptr, ptr, i32, i32, ptr, ptr, ptr, ptr, ptr, ptr, ptr, ptr, i32, i32, [32 x i8], ptr, ptr, ptr, ptr, ptr, ptr, ptr, i64, %struct.crypto_ex_data_st, ptr, i32, i32, i32, i32, i16, ptr, i32, i64, ptr, ptr, ptr, ptr, ptr, ptr, i32, i32, ptr, ptr, i8, i8, i32 }
%struct.crypto_ex_data_st = type { ptr }
%struct.ssl3_state_st = type { [8 x i8], [8 x i8], [32 x i8], [32 x i8], i8, i8, %struct.ssl3_buffer_st, %struct.ssl3_buffer_st, %struct.ssl3_record_st, i8, i32, i32, i32, i32, ptr, ptr, %struct.env_md_ctx_st, %struct.env_md_ctx_st, i8, i32, [2 x i8], i32, i8, i8, ptr, ptr, ptr, %struct.anon, [64 x i8], i8, [64 x i8], i8, i32, i32, ptr, i64, ptr, i64, i8, [64 x i8] }
%struct.ssl3_buffer_st = type { ptr, i16, i16, i16 }
%struct.ssl3_record_st = type { i8, i16, ptr }
%struct.env_md_ctx_st = type { ptr, ptr, ptr, ptr }
%struct.anon = type { [64 x i8], i32, [64 x i8], i32, i64, i32, ptr, i32, i32, %union.anon, %union.anon.0, i8, i32, ptr, ptr, i64, ptr, i8, i8, i8, i8, i32, i8, ptr, i64, i8, ptr, i8, i8, i8, %struct.ssl_ecdh_ctx_st, ptr, i16 }
%union.anon = type { i32 }
%union.anon.0 = type { i16 }
%struct.ssl_ecdh_ctx_st = type { ptr, ptr }
%struct.ssl_protocol_method_st = type { i8, ptr, ptr, ptr, ptr, ptr, ptr, ptr, ptr, ptr, ptr, ptr, i32, ptr, ptr }
%struct.cbb_st = type { ptr, ptr, i64, i8, i8, i8 }
%struct.buf_mem_st = type { i64, ptr, i64 }

@.str = private unnamed_addr constant [117 x i8] c"generated/home/dtcxzyw/WorkSpace/Projects/compilers/llvm-opt-benchmark/bench/libquic/libquic/boringssl/ssl/s3_clnt.c\00", align 1
@ssl3_send_next_proto.kZero = internal constant [32 x i8] zeroinitializer, align 16

; Function Attrs: nounwind uwtable
define hidden i32 @ssl3_send_next_proto(ptr noundef %0) #0 {
  %2 = alloca i32, align 4
  %3 = alloca ptr, align 8
  %4 = alloca i64, align 8
  %5 = alloca %struct.cbb_st, align 8
  %6 = alloca %struct.cbb_st, align 8
  %7 = alloca i64, align 8
  %8 = alloca i32, align 4
  store ptr %0, ptr %3, align 8, !tbaa !6
  %9 = load ptr, ptr %3, align 8, !tbaa !6
  %10 = getelementptr inbounds nuw %struct.ssl_st, ptr %9, i32 0, i32 9
  %11 = load i32, ptr %10, align 4, !tbaa !47
  %12 = icmp eq i32 %11, 4609
  br i1 %12, label %13, label %21

13:                                               ; preds = %1
  %14 = load ptr, ptr %3, align 8, !tbaa !6
  %15 = getelementptr inbounds nuw %struct.ssl_st, ptr %14, i32 0, i32 3
  %16 = load ptr, ptr %15, align 8, !tbaa !74
  %17 = getelementptr inbounds nuw %struct.ssl_protocol_method_st, ptr %16, i32 0, i32 14
  %18 = load ptr, ptr %17, align 8, !tbaa !80
  %19 = load ptr, ptr %3, align 8, !tbaa !6
  %20 = call i32 %18(ptr noundef %19)
  store i32 %20, ptr %2, align 4
  br label %104

21:                                               ; preds = %1
  call void @llvm.lifetime.start.p0(i64 8, ptr %4) #8
  %22 = load ptr, ptr %3, align 8, !tbaa !6
  %23 = getelementptr inbounds nuw %struct.ssl_st, ptr %22, i32 0, i32 14
  %24 = load ptr, ptr %23, align 8, !tbaa !54
  %25 = getelementptr inbounds nuw %struct.ssl3_state_st, ptr %24, i32 0, i32 35
  %26 = load i64, ptr %25, align 8, !tbaa !176
  %27 = add i64 %26, 2
  %28 = urem i64 %27, 32
  %29 = sub i64 32, %28
  store i64 %29, ptr %4, align 8, !tbaa !106
  call void @llvm.lifetime.start.p0(i64 32, ptr %5) #8
  call void @llvm.lifetime.start.p0(i64 32, ptr %6) #8
  call void @llvm.lifetime.start.p0(i64 8, ptr %7) #8
  call void @CBB_zero(ptr noundef %5)
  %30 = load ptr, ptr %3, align 8, !tbaa !6
  %31 = getelementptr inbounds nuw %struct.ssl_st, ptr %30, i32 0, i32 10
  %32 = load ptr, ptr %31, align 8, !tbaa !48
  %33 = getelementptr inbounds nuw %struct.buf_mem_st, ptr %32, i32 0, i32 1
  %34 = load ptr, ptr %33, align 8, !tbaa !100
  %35 = load ptr, ptr %3, align 8, !tbaa !6
  %36 = getelementptr inbounds nuw %struct.ssl_st, ptr %35, i32 0, i32 3
  %37 = load ptr, ptr %36, align 8, !tbaa !74
  %38 = getelementptr inbounds nuw %struct.ssl_protocol_method_st, ptr %37, i32 0, i32 12
  %39 = load i32, ptr %38, align 8, !tbaa !102
  %40 = zext i32 %39 to i64
  %41 = getelementptr inbounds nuw i8, ptr %34, i64 %40
  %42 = load ptr, ptr %3, align 8, !tbaa !6
  %43 = getelementptr inbounds nuw %struct.ssl_st, ptr %42, i32 0, i32 10
  %44 = load ptr, ptr %43, align 8, !tbaa !48
  %45 = getelementptr inbounds nuw %struct.buf_mem_st, ptr %44, i32 0, i32 2
  %46 = load i64, ptr %45, align 8, !tbaa !103
  %47 = load ptr, ptr %3, align 8, !tbaa !6
  %48 = getelementptr inbounds nuw %struct.ssl_st, ptr %47, i32 0, i32 3
  %49 = load ptr, ptr %48, align 8, !tbaa !74
  %50 = getelementptr inbounds nuw %struct.ssl_protocol_method_st, ptr %49, i32 0, i32 12
  %51 = load i32, ptr %50, align 8, !tbaa !102
  %52 = zext i32 %51 to i64
  %53 = sub i64 %46, %52
  %54 = call i32 @CBB_init_fixed(ptr noundef %5, ptr noundef %41, i64 noundef %53)
  %55 = icmp ne i32 %54, 0
  br i1 %55, label %56, label %92

56:                                               ; preds = %21
  %57 = call i32 @CBB_add_u8_length_prefixed(ptr noundef %5, ptr noundef %6)
  %58 = icmp ne i32 %57, 0
  br i1 %58, label %59, label %92

59:                                               ; preds = %56
  %60 = load ptr, ptr %3, align 8, !tbaa !6
  %61 = getelementptr inbounds nuw %struct.ssl_st, ptr %60, i32 0, i32 14
  %62 = load ptr, ptr %61, align 8, !tbaa !54
  %63 = getelementptr inbounds nuw %struct.ssl3_state_st, ptr %62, i32 0, i32 34
  %64 = load ptr, ptr %63, align 8, !tbaa !177
  %65 = load ptr, ptr %3, align 8, !tbaa !6
  %66 = getelementptr inbounds nuw %struct.ssl_st, ptr %65, i32 0, i32 14
  %67 = load ptr, ptr %66, align 8, !tbaa !54
  %68 = getelementptr inbounds nuw %struct.ssl3_state_st, ptr %67, i32 0, i32 35
  %69 = load i64, ptr %68, align 8, !tbaa !176
  %70 = call i32 @CBB_add_bytes(ptr noundef %6, ptr noundef %64, i64 noundef %69)
  %71 = icmp ne i32 %70, 0
  br i1 %71, label %72, label %92

72:                                               ; preds = %59
  %73 = call i32 @CBB_add_u8_length_prefixed(ptr noundef %5, ptr noundef %6)
  %74 = icmp ne i32 %73, 0
  br i1 %74, label %75, label %92

75:                                               ; preds = %72
  %76 = load i64, ptr %4, align 8, !tbaa !106
  %77 = call i32 @CBB_add_bytes(ptr noundef %6, ptr noundef @ssl3_send_next_proto.kZero, i64 noundef %76)
  %78 = icmp ne i32 %77, 0
  br i1 %78, label %79, label %92

79:                                               ; preds = %75
  %80 = call i32 @CBB_finish(ptr noundef %5, ptr noundef null, ptr noundef %7)
  %81 = icmp ne i32 %80, 0
  br i1 %81, label %82, label %92

82:                                               ; preds = %79
  %83 = load ptr, ptr %3, align 8, !tbaa !6
  %84 = getelementptr inbounds nuw %struct.ssl_st, ptr %83, i32 0, i32 3
  %85 = load ptr, ptr %84, align 8, !tbaa !74
  %86 = getelementptr inbounds nuw %struct.ssl_protocol_method_st, ptr %85, i32 0, i32 13
  %87 = load ptr, ptr %86, align 8, !tbaa !105
  %88 = load ptr, ptr %3, align 8, !tbaa !6
  %89 = load i64, ptr %7, align 8, !tbaa !106
  %90 = call i32 %87(ptr noundef %88, i32 noundef 67, i64 noundef %89)
  %91 = icmp ne i32 %90, 0
  br i1 %91, label %93, label %92

92:                                               ; preds = %82, %79, %75, %72, %59, %56, %21
  call void @ERR_put_error(i32 noundef 16, i32 noundef 0, i32 noundef 68, ptr noundef @.str, i32 noundef 1950)
  call void @CBB_cleanup(ptr noundef %5)
  store i32 -1, ptr %2, align 4
  store i32 1, ptr %8, align 4
  br label %103

93:                                               ; preds = %82
  %94 = load ptr, ptr %3, align 8, !tbaa !6
  %95 = getelementptr inbounds nuw %struct.ssl_st, ptr %94, i32 0, i32 9
  store i32 4609, ptr %95, align 4, !tbaa !47
  %96 = load ptr, ptr %3, align 8, !tbaa !6
  %97 = getelementptr inbounds nuw %struct.ssl_st, ptr %96, i32 0, i32 3
  %98 = load ptr, ptr %97, align 8, !tbaa !74
  %99 = getelementptr inbounds nuw %struct.ssl_protocol_method_st, ptr %98, i32 0, i32 14
  %100 = load ptr, ptr %99, align 8, !tbaa !80
  %101 = load ptr, ptr %3, align 8, !tbaa !6
  %102 = call i32 %100(ptr noundef %101)
  store i32 %102, ptr %2, align 4
  store i32 1, ptr %8, align 4
  br label %103

103:                                              ; preds = %93, %92
  call void @llvm.lifetime.end.p0(i64 8, ptr %7) #8
  call void @llvm.lifetime.end.p0(i64 32, ptr %6) #8
  call void @llvm.lifetime.end.p0(i64 32, ptr %5) #8
  call void @llvm.lifetime.end.p0(i64 8, ptr %4) #8
  br label %104

104:                                              ; preds = %103, %13
  %105 = load i32, ptr %2, align 4
  ret i32 %105
}