; Function Attrs: nounwind uwtable
define hidden i32 @ssl3_send_next_proto(ptr noundef %0) local_unnamed_addr #0 {
  %2 = alloca %struct.cbb_st, align 8
  %3 = alloca %struct.cbb_st, align 8
  %4 = alloca i64, align 8
  %5 = getelementptr inbounds nuw i8, ptr %0, i64 52
  %6 = load i32, ptr %5, align 4, !tbaa !42
  %7 = icmp eq i32 %6, 4609
  br i1 %7, label %8, label %14

8:                                                ; preds = %1
  %9 = getelementptr inbounds nuw i8, ptr %0, i64 8
  %10 = load ptr, ptr %9, align 8, !tbaa !70
  %11 = getelementptr inbounds nuw i8, ptr %10, i64 112
  %12 = load ptr, ptr %11, align 8, !tbaa !83
  %13 = tail call i32 %12(ptr noundef nonnull %0) #11
  br label %64

14:                                               ; preds = %1
  %15 = getelementptr inbounds nuw i8, ptr %0, i64 80
  %16 = load ptr, ptr %15, align 8, !tbaa !49
  %17 = getelementptr inbounds nuw i8, ptr %16, i64 744
  %18 = load i64, ptr %17, align 8, !tbaa !155
  %19 = add i64 %18, 2
  %20 = and i64 %19, 31
  %21 = sub nuw nsw i64 32, %20
  call void @llvm.lifetime.start.p0(i64 32, ptr nonnull %2) #11
  call void @llvm.lifetime.start.p0(i64 32, ptr nonnull %3) #11
  call void @llvm.lifetime.start.p0(i64 8, ptr nonnull %4) #11
  call void @CBB_zero(ptr noundef nonnull %2) #11
  %22 = getelementptr inbounds nuw i8, ptr %0, i64 56
  %23 = load ptr, ptr %22, align 8, !tbaa !43
  %24 = getelementptr inbounds nuw i8, ptr %23, i64 8
  %25 = load ptr, ptr %24, align 8, !tbaa !99
  %26 = getelementptr inbounds nuw i8, ptr %0, i64 8
  %27 = load ptr, ptr %26, align 8, !tbaa !70
  %28 = getelementptr inbounds nuw i8, ptr %27, i64 96
  %29 = load i32, ptr %28, align 8, !tbaa !101
  %30 = zext i32 %29 to i64
  %31 = getelementptr inbounds nuw i8, ptr %25, i64 %30
  %32 = getelementptr inbounds nuw i8, ptr %23, i64 16
  %33 = load i64, ptr %32, align 8, !tbaa !102
  %34 = sub i64 %33, %30
  %35 = call i32 @CBB_init_fixed(ptr noundef nonnull %2, ptr noundef %31, i64 noundef %34) #11
  %.not = icmp eq i32 %35, 0
  br i1 %.not, label %57, label %36

36:                                               ; preds = %14
  %37 = call i32 @CBB_add_u8_length_prefixed(ptr noundef nonnull %2, ptr noundef nonnull %3) #11
  %.not16 = icmp eq i32 %37, 0
  br i1 %.not16, label %57, label %38

38:                                               ; preds = %36
  %39 = load ptr, ptr %15, align 8, !tbaa !49
  %40 = getelementptr inbounds nuw i8, ptr %39, i64 736
  %41 = load ptr, ptr %40, align 8, !tbaa !156
  %42 = getelementptr inbounds nuw i8, ptr %39, i64 744
  %43 = load i64, ptr %42, align 8, !tbaa !155
  %44 = call i32 @CBB_add_bytes(ptr noundef nonnull %3, ptr noundef %41, i64 noundef %43) #11
  %.not17 = icmp eq i32 %44, 0
  br i1 %.not17, label %57, label %45

45:                                               ; preds = %38
  %46 = call i32 @CBB_add_u8_length_prefixed(ptr noundef nonnull %2, ptr noundef nonnull %3) #11
  %.not18 = icmp eq i32 %46, 0
  br i1 %.not18, label %57, label %47

47:                                               ; preds = %45
  %48 = call i32 @CBB_add_bytes(ptr noundef nonnull %3, ptr noundef nonnull @ssl3_send_next_proto.kZero, i64 noundef %21) #11
  %.not19 = icmp eq i32 %48, 0
  br i1 %.not19, label %57, label %49

49:                                               ; preds = %47
  %50 = call i32 @CBB_finish(ptr noundef nonnull %2, ptr noundef null, ptr noundef nonnull %4) #11
  %.not20 = icmp eq i32 %50, 0
  br i1 %.not20, label %57, label %51

51:                                               ; preds = %49
  %52 = load ptr, ptr %26, align 8, !tbaa !70
  %53 = getelementptr inbounds nuw i8, ptr %52, i64 104
  %54 = load ptr, ptr %53, align 8, !tbaa !104
  %55 = load i64, ptr %4, align 8, !tbaa !105
  %56 = call i32 %54(ptr noundef nonnull %0, i32 noundef 67, i64 noundef %55) #11
  %.not21 = icmp eq i32 %56, 0
  br i1 %.not21, label %57, label %58

57:                                               ; preds = %51, %49, %47, %45, %38, %36, %14
  call void @ERR_put_error(i32 noundef 16, i32 noundef 0, i32 noundef 68, ptr noundef nonnull @.str, i32 noundef 1950) #11
  call void @CBB_cleanup(ptr noundef nonnull %2) #11
  br label %63

58:                                               ; preds = %51
  store i32 4609, ptr %5, align 4, !tbaa !42
  %59 = load ptr, ptr %26, align 8, !tbaa !70
  %60 = getelementptr inbounds nuw i8, ptr %59, i64 112
  %61 = load ptr, ptr %60, align 8, !tbaa !83
  %62 = call i32 %61(ptr noundef nonnull %0) #11
  br label %63

63:                                               ; preds = %58, %57
  %.1 = phi i32 [ %62, %58 ], [ -1, %57 ]
  call void @llvm.lifetime.end.p0(i64 8, ptr nonnull %4) #11
  call void @llvm.lifetime.end.p0(i64 32, ptr nonnull %3) #11
  call void @llvm.lifetime.end.p0(i64 32, ptr nonnull %2) #11
  br label %64

64:                                               ; preds = %63, %8
  %.0 = phi i32 [ %13, %8 ], [ %.1, %63 ]
  ret i32 %.0
}